target datalayout = "e-m:e-p270:32:32-p271:32:32-p272:64:64-i64:64-i128:128-f80:128-n8:16:32:64-S128"
target triple = "x86_64-pc-linux-gnu"

%"class.(anonymous namespace)::MergeCondVisitor" = type { %class.VNVisitor, %class.VDouble0, %class.VDouble0, %class.VDouble0, %class.VDouble0, ptr, ptr, ptr, ptr, i32, ptr, ptr }
%class.VNVisitor = type { %class.VNVisitorConst, %class.VNDeleter }
%class.VNVisitorConst = type { ptr }
%class.VNDeleter = type { %"class.std::vector" }
%"class.std::vector" = type { %"struct.std::_Vector_base" }
%"struct.std::_Vector_base" = type { %"struct.std::_Vector_base<AstNode *, std::allocator<AstNode *>>::_Vector_impl" }
%"struct.std::_Vector_base<AstNode *, std::allocator<AstNode *>>::_Vector_impl" = type { %"struct.std::_Vector_base<AstNode *, std::allocator<AstNode *>>::_Vector_impl_data" }
%"struct.std::_Vector_base<AstNode *, std::allocator<AstNode *>>::_Vector_impl_data" = type { ptr, ptr, ptr }
%class.VDouble0 = type { double }
%class.AstNode = type { ptr, ptr, ptr, ptr, ptr, ptr, ptr, ptr, %class.VNType, %struct.anon, i8, i32, ptr, ptr, ptr, ptr, %class.VNUser, i32, i32, %class.VNUser, %class.VNUser, i32, i32, %class.VNUser }
%class.VNType = type { i16 }
%struct.anon = type { i8 }
%class.VNUser = type { %union.anon.52 }
%union.anon.52 = type { ptr }
%class.V3ErrorCode = type { i8 }
%class.AstNodeDType = type <{ %class.AstNode, i32, i32, %class.VSigning, i8, [6 x i8] }>
%class.VSigning = type { i8 }

@.str.1 = private unnamed_addr constant [117 x i8] c"generated/home/dtcxzyw/WorkSpace/Projects/compilers/llvm-opt-benchmark/bench/verilator/verilator/src/V3MergeCond.cpp\00", align 1
@.str.466 = private unnamed_addr constant [29 x i8] c"Cannot check with empty list\00", align 1

; Function Attrs: mustprogress nounwind uwtable
define linkonce_odr dso_local noundef zeroext i1 @_ZeqRK6VNTypeNS_2enE(ptr noundef nonnull align 2 dereferenceable(2) %0, i16 noundef zeroext %1) #5 comdat {
  %3 = alloca ptr, align 8
  %4 = alloca i16, align 2
  store ptr %0, ptr %3, align 8
  store i16 %1, ptr %4, align 2
  %5 = load ptr, ptr %3, align 8
  %6 = getelementptr inbounds %class.VNType, ptr %5, i32 0, i32 0
  %7 = load i16, ptr %6, align 2
  %8 = zext i16 %7 to i32
  %9 = load i16, ptr %4, align 2
  %10 = zext i16 %9 to i32
  %11 = icmp eq i32 %8, %10
  ret i1 %11
}

; Function Attrs: mustprogress nounwind uwtable
define linkonce_odr dso_local noundef zeroext i16 @_ZNK6VNTypecvNS_2enEEv(ptr noundef nonnull align 2 dereferenceable(2) %0) #5 comdat align 2 {
  %2 = alloca ptr, align 8
  store ptr %0, ptr %2, align 8
  %3 = load ptr, ptr %2, align 8
  %4 = getelementptr inbounds %class.VNType, ptr %3, i32 0, i32 0
  %5 = load i16, ptr %4, align 2
  ret i16 %5
}

; Function Attrs: mustprogress nounwind uwtable
define linkonce_odr dso_local i16 @_ZNK7AstNode4typeEv(ptr noundef nonnull align 8 dereferenceable(152) %0) #5 comdat align 2 {
  %2 = alloca %class.VNType, align 2
  %3 = alloca ptr, align 8
  store ptr %0, ptr %3, align 8
  %4 = load ptr, ptr %3, align 8
  %5 = getelementptr inbounds %class.AstNode, ptr %4, i32 0, i32 8
  call void @llvm.memcpy.p0.p0.i64(ptr align 2 %2, ptr align 8 %5, i64 2, i1 false)
  %6 = getelementptr inbounds %class.VNType, ptr %2, i32 0, i32 0
  %7 = load i16, ptr %6, align 2
  ret i16 %7
}

; Function Attrs: mustprogress uwtable
define linkonce_odr dso_local noundef zeroext i1 @_ZN7AstNode15privateTypeTestI6AstAndEEbPKS_(ptr noundef %0) #4 comdat align 2 {
  %2 = alloca ptr, align 8
  %3 = alloca %class.VNType, align 2
  store ptr %0, ptr %2, align 8
  %4 = load ptr, ptr %2, align 8
  %5 = call i16 @_ZNK7AstNode4typeEv(ptr noundef nonnull align 8 dereferenceable(152) %4)
  %6 = getelementptr inbounds %class.VNType, ptr %3, i32 0, i32 0
  store i16 %5, ptr %6, align 2
  %7 = call noundef zeroext i1 @_ZeqRK6VNTypeNS_2enE(ptr noundef nonnull align 2 dereferenceable(2) %3, i16 noundef zeroext 216)
  ret i1 %7
}

; Function Attrs: mustprogress nounwind uwtable
define linkonce_odr dso_local noundef ptr @_ZNK7AstNode4op1pEv(ptr noundef nonnull align 8 dereferenceable(152) %0) #5 comdat align 2 {
  %2 = alloca ptr, align 8
  store ptr %0, ptr %2, align 8
  %3 = load ptr, ptr %2, align 8
  %4 = getelementptr inbounds %class.AstNode, ptr %3, i32 0, i32 3
  %5 = load ptr, ptr %4, align 8
  ret ptr %5
}

; Function Attrs: mustprogress nounwind uwtable
define linkonce_odr dso_local noundef i32 @_ZNK12AstNodeDType8widthMinEv(ptr noundef nonnull align 8 dereferenceable(162) %0) #5 comdat align 2 {
  %2 = alloca ptr, align 8
  store ptr %0, ptr %2, align 8
  %3 = load ptr, ptr %2, align 8
  %4 = getelementptr inbounds %class.AstNodeDType, ptr %3, i32 0, i32 2
  %5 = load i32, ptr %4, align 4
  %6 = icmp ne i32 %5, 0
  br i1 %6, label %7, label %10

7:                                                ; preds = %1
  %8 = getelementptr inbounds %class.AstNodeDType, ptr %3, i32 0, i32 2
  %9 = load i32, ptr %8, align 4
  br label %13

10:                                               ; preds = %1
  %11 = getelementptr inbounds %class.AstNodeDType, ptr %3, i32 0, i32 1
  %12 = load i32, ptr %11, align 8
  br label %13

13:                                               ; preds = %10, %7
  %14 = phi i32 [ %9, %7 ], [ %12, %10 ]
  ret i32 %14
}

; Function Attrs: mustprogress nounwind uwtable
define linkonce_odr dso_local noundef ptr @_ZNK7AstNode6dtypepEv(ptr noundef nonnull align 8 dereferenceable(152) %0) #5 comdat align 2 {
  %2 = alloca ptr, align 8
  store ptr %0, ptr %2, align 8
  %3 = load ptr, ptr %2, align 8
  %4 = getelementptr inbounds %class.AstNode, ptr %3, i32 0, i32 12
  %5 = load ptr, ptr %4, align 8
  ret ptr %5
}

; Function Attrs: mustprogress nounwind uwtable
define linkonce_odr dso_local noundef ptr @_ZN7AstNode15unsafePrivateAsI11AstNodeExprPS_EEPT_S2_(ptr noundef %0) #5 comdat align 2 {
  %2 = alloca ptr, align 8
  store ptr %0, ptr %2, align 8
  %3 = load ptr, ptr %2, align 8
  ret ptr %3
}

; Function Attrs: mustprogress nounwind uwtable
define linkonce_odr dso_local noundef ptr @_ZNK7AstNode4op2pEv(ptr noundef nonnull align 8 dereferenceable(152) %0) #5 comdat align 2 {
  %2 = alloca ptr, align 8
  store ptr %0, ptr %2, align 8
  %3 = load ptr, ptr %2, align 8
  %4 = getelementptr inbounds %class.AstNode, ptr %3, i32 0, i32 4
  %5 = load ptr, ptr %4, align 8
  ret ptr %5
}

; Function Attrs: mustprogress nounwind uwtable
define linkonce_odr dso_local noundef zeroext i1 @_ZN7AstNode15privateTypeTestI13AstNodeAssignEEbPKS_(ptr noundef %0) #5 comdat align 2 {
  %2 = alloca ptr, align 8
  %3 = alloca %class.VNType, align 2
  %4 = alloca %class.VNType, align 2
  store ptr %0, ptr %2, align 8
  %5 = load ptr, ptr %2, align 8
  %6 = call i16 @_ZNK7AstNode4typeEv(ptr noundef nonnull align 8 dereferenceable(152) %5)
  %7 = getelementptr inbounds %class.VNType, ptr %3, i32 0, i32 0
  store i16 %6, ptr %7, align 2
  %8 = call noundef zeroext i16 @_ZNK6VNTypecvNS_2enEEv(ptr noundef nonnull align 2 dereferenceable(2) %3)
  %9 = zext i16 %8 to i32
  %10 = icmp sge i32 %9, 391
  br i1 %10, label %11, label %18

11:                                               ; preds = %1
  %12 = load ptr, ptr %2, align 8
  %13 = call i16 @_ZNK7AstNode4typeEv(ptr noundef nonnull align 8 dereferenceable(152) %12)
  %14 = getelementptr inbounds %class.VNType, ptr %4, i32 0, i32 0
  store i16 %13, ptr %14, align 2
  %15 = call noundef zeroext i16 @_ZNK6VNTypecvNS_2enEEv(ptr noundef nonnull align 2 dereferenceable(2) %4)
  %16 = zext i16 %15 to i32
  %17 = icmp sle i32 %16, 398
  br label %18

18:                                               ; preds = %11, %1
  %19 = phi i1 [ false, %1 ], [ %17, %11 ]
  ret i1 %19
}

; Function Attrs: mustprogress uwtable
define linkonce_odr dso_local noundef ptr @_ZNK6AstAnd4rhspEv(ptr noundef nonnull align 8 dereferenceable(160) %0) #4 comdat align 2 {
  %2 = alloca ptr, align 8
  store ptr %0, ptr %2, align 8
  %3 = load ptr, ptr %2, align 8
  %4 = call noundef ptr @_ZNK7AstNode4op2pEv(ptr noundef nonnull align 8 dereferenceable(152) %3)
  %5 = call noundef ptr @_ZN7AstNode15unsafePrivateAsI11AstNodeExprPS_EEPT_S2_(ptr noundef %4)
  ret ptr %5
}

; Function Attrs: mustprogress uwtable
define linkonce_odr dso_local noundef zeroext i1 @_ZNK7AstNode8sameTreeEPKS_(ptr noundef nonnull align 8 dereferenceable(152) %0, ptr noundef %1) #4 comdat align 2 {
  %3 = alloca ptr, align 8
  %4 = alloca ptr, align 8
  store ptr %0, ptr %3, align 8
  store ptr %1, ptr %4, align 8
  %5 = load ptr, ptr %3, align 8
  %6 = load ptr, ptr %4, align 8
  %7 = call noundef zeroext i1 @_ZN7AstNode12sameTreeIterEPKS_S1_bb(ptr noundef %5, ptr noundef %6, i1 noundef zeroext true, i1 noundef zeroext false)
  ret i1 %7
}

; Function Attrs: mustprogress uwtable
define linkonce_odr dso_local noundef ptr @_ZNK6AstAnd4lhspEv(ptr noundef nonnull align 8 dereferenceable(160) %0) #4 comdat align 2 {
  %2 = alloca ptr, align 8
  store ptr %0, ptr %2, align 8
  %3 = load ptr, ptr %2, align 8
  %4 = call noundef ptr @_ZNK7AstNode4op1pEv(ptr noundef nonnull align 8 dereferenceable(152) %3)
  %5 = call noundef ptr @_ZN7AstNode15unsafePrivateAsI11AstNodeExprPS_EEPT_S2_(ptr noundef %4)
  ret ptr %5
}

; Function Attrs: mustprogress uwtable
define linkonce_odr dso_local noundef ptr @_ZN7AstNode11privateCastI6AstAndP11AstNodeExprEEPT_PS_(ptr noundef %0) #4 comdat align 2 {
  %2 = alloca ptr, align 8
  store ptr %0, ptr %2, align 8
  %3 = load ptr, ptr %2, align 8
  %4 = icmp ne ptr %3, null
  br i1 %4, label %5, label %10

5:                                                ; preds = %1
  %6 = load ptr, ptr %2, align 8
  %7 = call noundef zeroext i1 @_ZN7AstNode15privateTypeTestI6AstAndEEbPKS_(ptr noundef %6)
  br i1 %7, label %8, label %10

8:                                                ; preds = %5
  %9 = load ptr, ptr %2, align 8
  br label %11

10:                                               ; preds = %5, %1
  br label %11

11:                                               ; preds = %10, %8
  %12 = phi ptr [ %9, %8 ], [ null, %10 ]
  ret ptr %12
}

; Function Attrs: mustprogress nounwind uwtable
define linkonce_odr dso_local noundef ptr @_ZNK13AstNodeAssign4rhspEv(ptr noundef nonnull align 8 dereferenceable(152) %0) #5 comdat align 2 {
  %2 = alloca ptr, align 8
  store ptr %0, ptr %2, align 8
  %3 = load ptr, ptr %2, align 8
  %4 = call noundef ptr @_ZNK7AstNode4op1pEv(ptr noundef nonnull align 8 dereferenceable(152) %3)
  %5 = call noundef ptr @_ZN7AstNode15unsafePrivateAsI11AstNodeExprPS_EEPT_S2_(ptr noundef %4)
  ret ptr %5
}

; Function Attrs: mustprogress uwtable
define linkonce_odr dso_local noundef i32 @_ZNK7AstNode8widthMinEv(ptr noundef nonnull align 8 dereferenceable(152) %0) #4 comdat align 2 {
  %2 = alloca ptr, align 8
  store ptr %0, ptr %2, align 8
  %3 = load ptr, ptr %2, align 8
  %4 = call noundef ptr @_ZNK7AstNode6dtypepEv(ptr noundef nonnull align 8 dereferenceable(152) %3)
  %5 = icmp ne ptr %4, null
  br i1 %5, label %6, label %9

6:                                                ; preds = %1
  %7 = call noundef ptr @_ZNK7AstNode6dtypepEv(ptr noundef nonnull align 8 dereferenceable(152) %3)
  %8 = call noundef i32 @_ZNK12AstNodeDType8widthMinEv(ptr noundef nonnull align 8 dereferenceable(162) %7)
  br label %10

9:                                                ; preds = %1
  br label %10

10:                                               ; preds = %9, %6
  %11 = phi i32 [ %8, %6 ], [ 0, %9 ]
  ret i32 %11
}

; Function Attrs: mustprogress nounwind uwtable
define linkonce_odr dso_local noundef ptr @_ZNK13AstNodeAssign4lhspEv(ptr noundef nonnull align 8 dereferenceable(152) %0) #5 comdat align 2 {
  %2 = alloca ptr, align 8
  store ptr %0, ptr %2, align 8
  %3 = load ptr, ptr %2, align 8
  %4 = call noundef ptr @_ZNK7AstNode4op2pEv(ptr noundef nonnull align 8 dereferenceable(152) %3)
  %5 = call noundef ptr @_ZN7AstNode15unsafePrivateAsI11AstNodeExprPS_EEPT_S2_(ptr noundef %4)
  ret ptr %5
}

; Function Attrs: mustprogress nounwind uwtable
define linkonce_odr dso_local noundef ptr @_ZN7AstNode11privateCastI13AstNodeAssignPS_EEPT_S2_(ptr noundef %0) #5 comdat align 2 {
  %2 = alloca ptr, align 8
  store ptr %0, ptr %2, align 8
  %3 = load ptr, ptr %2, align 8
  %4 = icmp ne ptr %3, null
  br i1 %4, label %5, label %10

5:                                                ; preds = %1
  %6 = load ptr, ptr %2, align 8
  %7 = call noundef zeroext i1 @_ZN7AstNode15privateTypeTestI13AstNodeAssignEEbPKS_(ptr noundef %6)
  br i1 %7, label %8, label %10

8:                                                ; preds = %5
  %9 = load ptr, ptr %2, align 8
  br label %11

10:                                               ; preds = %5, %1
  br label %11

11:                                               ; preds = %10, %8
  %12 = phi ptr [ %9, %8 ], [ null, %10 ]
  ret ptr %12
}

; Function Attrs: mustprogress nounwind uwtable
define linkonce_odr dso_local void @_ZN11V3ErrorCodeC2ENS_2enE(ptr noundef nonnull align 1 dereferenceable(1) %0, i8 noundef zeroext %1) unnamed_addr #5 comdat align 2 {
  %3 = alloca ptr, align 8
  %4 = alloca i8, align 1
  store ptr %0, ptr %3, align 8
  store i8 %1, ptr %4, align 1
  %5 = load ptr, ptr %3, align 8
  %6 = getelementptr inbounds %class.V3ErrorCode, ptr %5, i32 0, i32 0
  %7 = load i8, ptr %4, align 1
  store i8 %7, ptr %6, align 1
  ret void
}

; Function Attrs: mustprogress uwtable
define internal noundef zeroext i1 @_ZN12_GLOBAL__N_116MergeCondVisitor18isSimplifiableNodeEP7AstNode(ptr noundef nonnull align 8 dereferenceable(120) %0, ptr noundef %1) #4 align 2 {
  %3 = alloca i1, align 1
  %4 = alloca ptr, align 8
  %5 = alloca ptr, align 8
  %6 = alloca %class.V3ErrorCode, align 1
  %7 = alloca ptr, align 8
  %8 = alloca ptr, align 8
  store ptr %0, ptr %4, align 8
  store ptr %1, ptr %5, align 8
  %9 = load ptr, ptr %4, align 8
  br label %10

10:                                               ; preds = %2
  %11 = getelementptr inbounds %"class.(anonymous namespace)::MergeCondVisitor", ptr %9, i32 0, i32 5
  %12 = load ptr, ptr %11, align 8
  %13 = icmp ne ptr %12, null
  %14 = xor i1 %13, true
  %15 = xor i1 %14, true
  %16 = xor i1 %15, true
  br i1 %16, label %17, label %24

17:                                               ; preds = %10
  %18 = load ptr, ptr %5, align 8
  call void @_ZN11V3ErrorCodeC2ENS_2enE(ptr noundef nonnull align 1 dereferenceable(1) %6, i8 noundef zeroext 4)
  %19 = getelementptr inbounds %class.V3ErrorCode, ptr %6, i32 0, i32 0
  %20 = load i8, ptr %19, align 1
  %21 = call noundef nonnull align 8 dereferenceable(112) ptr @_ZN7V3Error19v3errorPrepFileLineB5cxx11E11V3ErrorCodePKcib(i8 %20, ptr noundef @.str.1, i32 noundef 726, i1 noundef zeroext true)
  %22 = call noundef nonnull align 8 dereferenceable(112) ptr @_ZN7V3Error10v3errorStrB5cxx11Ev()
  %23 = call noundef nonnull align 8 dereferenceable(8) ptr @_ZStlsISt11char_traitsIcEERSt13basic_ostreamIcT_ES5_PKc(ptr noundef nonnull align 8 dereferenceable(8) %22, ptr noundef @.str.466)
  call void @_ZNK7AstNode15v3errorEndFatalERNSt7__cxx1119basic_ostringstreamIcSt11char_traitsIcESaIcEEE(ptr noundef nonnull align 8 dereferenceable(152) %18, ptr noundef nonnull align 8 dereferenceable(112) %23) #18
  unreachable

24:                                               ; preds = %10
  br label %25

25:                                               ; preds = %24
  %26 = load ptr, ptr %5, align 8
  %27 = call noundef ptr @_ZN7AstNode11privateCastI13AstNodeAssignPS_EEPT_S2_(ptr noundef %26)
  store ptr %27, ptr %7, align 8
  %28 = load ptr, ptr %7, align 8
  %29 = icmp ne ptr %28, null
  br i1 %29, label %30, label %64

30:                                               ; preds = %25
  %31 = load ptr, ptr %7, align 8
  %32 = call noundef ptr @_ZNK13AstNodeAssign4lhspEv(ptr noundef nonnull align 8 dereferenceable(152) %31)
  %33 = call noundef i32 @_ZNK7AstNode8widthMinEv(ptr noundef nonnull align 8 dereferenceable(152) %32)
  %34 = icmp eq i32 %33, 1
  br i1 %34, label %35, label %63

35:                                               ; preds = %30
  %36 = load ptr, ptr %7, align 8
  %37 = call noundef ptr @_ZNK13AstNodeAssign4rhspEv(ptr noundef nonnull align 8 dereferenceable(152) %36)
  %38 = call noundef ptr @_ZN7AstNode11privateCastI6AstAndP11AstNodeExprEEPT_PS_(ptr noundef %37)
  store ptr %38, ptr %8, align 8
  %39 = load ptr, ptr %8, align 8
  %40 = icmp ne ptr %39, null
  br i1 %40, label %41, label %55

41:                                               ; preds = %35
  %42 = load ptr, ptr %8, align 8
  %43 = call noundef ptr @_ZNK6AstAnd4lhspEv(ptr noundef nonnull align 8 dereferenceable(160) %42)
  %44 = getelementptr inbounds %"class.(anonymous namespace)::MergeCondVisitor", ptr %9, i32 0, i32 6
  %45 = load ptr, ptr %44, align 8
  %46 = call noundef zeroext i1 @_ZNK7AstNode8sameTreeEPKS_(ptr noundef nonnull align 8 dereferenceable(152) %43, ptr noundef %45)
  br i1 %46, label %53, label %47

47:                                               ; preds = %41
  %48 = load ptr, ptr %8, align 8
  %49 = call noundef ptr @_ZNK6AstAnd4rhspEv(ptr noundef nonnull align 8 dereferenceable(160) %48)
  %50 = getelementptr inbounds %"class.(anonymous namespace)::MergeCondVisitor", ptr %9, i32 0, i32 6
  %51 = load ptr, ptr %50, align 8
  %52 = call noundef zeroext i1 @_ZNK7AstNode8sameTreeEPKS_(ptr noundef nonnull align 8 dereferenceable(152) %49, ptr noundef %51)
  br i1 %52, label %53, label %54

53:                                               ; preds = %47, %41
  store i1 true, ptr %3, align 1
  br label %65

54:                                               ; preds = %47
  br label %55

55:                                               ; preds = %54, %35
  %56 = load ptr, ptr %7, align 8
  %57 = call noundef ptr @_ZNK13AstNodeAssign4rhspEv(ptr noundef nonnull align 8 dereferenceable(152) %56)
  %58 = getelementptr inbounds %"class.(anonymous namespace)::MergeCondVisitor", ptr %9, i32 0, i32 6
  %59 = load ptr, ptr %58, align 8
  %60 = call noundef zeroext i1 @_ZNK7AstNode8sameTreeEPKS_(ptr noundef nonnull align 8 dereferenceable(152) %57, ptr noundef %59)
  br i1 %60, label %61, label %62

61:                                               ; preds = %55
  store i1 true, ptr %3, align 1
  br label %65

62:                                               ; preds = %55
  br label %63

63:                                               ; preds = %62, %30
  br label %64

64:                                               ; preds = %63, %25
  store i1 false, ptr %3, align 1
  br label %65

65:                                               ; preds = %64, %61, %53
  %66 = load i1, ptr %3, align 1
  ret i1 %66
}