; Function Attrs: mustprogress uwtable
define internal fastcc noundef zeroext i1 @_ZN12_GLOBAL__N_116MergeCondVisitor18isSimplifiableNodeEP7AstNode(ptr nocapture noundef nonnull readonly align 8 dereferenceable(120) %0, ptr noundef %1) unnamed_addr #3 align 2 {
  %3 = getelementptr inbounds i8, ptr %0, i64 64
  %4 = load ptr, ptr %3, align 8
  %.not = icmp eq ptr %4, null
  br i1 %.not, label %5, label %9

5:                                                ; preds = %2
  %6 = tail call noundef nonnull align 8 dereferenceable(112) ptr @_ZN7V3Error19v3errorPrepFileLineB5cxx11E11V3ErrorCodePKcib(i8 4, ptr noundef nonnull @.str.1, i32 noundef 726, i1 noundef zeroext true)
  %7 = tail call noundef nonnull align 8 dereferenceable(112) ptr @_ZN7V3Error10v3errorStrB5cxx11Ev()
  %8 = tail call noundef nonnull align 8 dereferenceable(8) ptr @_ZStlsISt11char_traitsIcEERSt13basic_ostreamIcT_ES5_PKc(ptr noundef nonnull align 8 dereferenceable(8) %7, ptr noundef nonnull @.str.466)
  tail call void @_ZNK7AstNode15v3errorEndFatalERNSt7__cxx1119basic_ostringstreamIcSt11char_traitsIcESaIcEEE(ptr noundef nonnull align 8 dereferenceable(152) %1, ptr noundef nonnull align 8 dereferenceable(112) %8) #27
  unreachable

9:                                                ; preds = %2
  %.not.i = icmp eq ptr %1, null
  br i1 %.not.i, label %_ZN7AstNode11privateCastI13AstNodeAssignPS_EEPT_S2_.exit.thread, label %10

10:                                               ; preds = %9
  %11 = getelementptr inbounds i8, ptr %1, i64 64
  %.sroa.0.0.copyload.i.i.i = load i16, ptr %11, align 8
  %12 = add i16 %.sroa.0.0.copyload.i.i.i, -391
  %spec.select.i.i = icmp ult i16 %12, 8
  br i1 %spec.select.i.i, label %_ZN7AstNode11privateCastI13AstNodeAssignPS_EEPT_S2_.exit, label %_ZN7AstNode11privateCastI13AstNodeAssignPS_EEPT_S2_.exit.thread

_ZN7AstNode11privateCastI13AstNodeAssignPS_EEPT_S2_.exit: ; preds = %10
  %13 = getelementptr inbounds i8, ptr %1, i64 32
  %14 = load ptr, ptr %13, align 8
  %15 = getelementptr inbounds i8, ptr %14, i64 72
  %16 = load ptr, ptr %15, align 8
  %.not.i15 = icmp eq ptr %16, null
  br i1 %.not.i15, label %_ZN7AstNode11privateCastI13AstNodeAssignPS_EEPT_S2_.exit.thread, label %_ZNK7AstNode8widthMinEv.exit

_ZNK7AstNode8widthMinEv.exit:                     ; preds = %_ZN7AstNode11privateCastI13AstNodeAssignPS_EEPT_S2_.exit
  %17 = getelementptr inbounds i8, ptr %16, i64 156
  %18 = load i32, ptr %17, align 4
  %.not.i.i = icmp eq i32 %18, 0
  %19 = getelementptr inbounds i8, ptr %16, i64 152
  %20 = load i32, ptr %19, align 8
  %21 = select i1 %.not.i.i, i32 %20, i32 %18
  %22 = icmp eq i32 %21, 1
  br i1 %22, label %23, label %_ZN7AstNode11privateCastI13AstNodeAssignPS_EEPT_S2_.exit.thread

23:                                               ; preds = %_ZNK7AstNode8widthMinEv.exit
  %24 = getelementptr inbounds i8, ptr %1, i64 24
  %25 = load ptr, ptr %24, align 8, !nonnull !59, !noundef !59
  %26 = getelementptr inbounds i8, ptr %25, i64 64
  %.sroa.0.0.copyload.i.i.i17 = load i16, ptr %26, align 8
  %27 = icmp eq i16 %.sroa.0.0.copyload.i.i.i17, 216
  br i1 %27, label %_ZN7AstNode11privateCastI6AstAndP11AstNodeExprEEPT_PS_.exit, label %_ZN7AstNode11privateCastI6AstAndP11AstNodeExprEEPT_PS_.exit.thread

_ZN7AstNode11privateCastI6AstAndP11AstNodeExprEEPT_PS_.exit: ; preds = %23
  %28 = getelementptr inbounds i8, ptr %25, i64 24
  %29 = load ptr, ptr %28, align 8
  %30 = getelementptr inbounds i8, ptr %0, i64 72
  %31 = load ptr, ptr %30, align 8
  %32 = tail call noundef zeroext i1 @_ZN7AstNode12sameTreeIterEPKS_S1_bb(ptr noundef nonnull %29, ptr noundef %31, i1 noundef zeroext true, i1 noundef zeroext false)
  br i1 %32, label %42, label %33

33:                                               ; preds = %_ZN7AstNode11privateCastI6AstAndP11AstNodeExprEEPT_PS_.exit
  %34 = getelementptr inbounds i8, ptr %25, i64 32
  %35 = load ptr, ptr %34, align 8
  %36 = load ptr, ptr %30, align 8
  %37 = tail call noundef zeroext i1 @_ZN7AstNode12sameTreeIterEPKS_S1_bb(ptr noundef nonnull %35, ptr noundef %36, i1 noundef zeroext true, i1 noundef zeroext false)
  br i1 %37, label %42, label %._ZN7AstNode11privateCastI6AstAndP11AstNodeExprEEPT_PS_.exit.thread_crit_edge

._ZN7AstNode11privateCastI6AstAndP11AstNodeExprEEPT_PS_.exit.thread_crit_edge: ; preds = %33
  %.pre = load ptr, ptr %24, align 8
  br label %_ZN7AstNode11privateCastI6AstAndP11AstNodeExprEEPT_PS_.exit.thread

_ZN7AstNode11privateCastI6AstAndP11AstNodeExprEEPT_PS_.exit.thread: ; preds = %._ZN7AstNode11privateCastI6AstAndP11AstNodeExprEEPT_PS_.exit.thread_crit_edge, %23
  %38 = phi ptr [ %.pre, %._ZN7AstNode11privateCastI6AstAndP11AstNodeExprEEPT_PS_.exit.thread_crit_edge ], [ %25, %23 ]
  %39 = getelementptr inbounds i8, ptr %0, i64 72
  %40 = load ptr, ptr %39, align 8
  %41 = tail call noundef zeroext i1 @_ZN7AstNode12sameTreeIterEPKS_S1_bb(ptr noundef nonnull %38, ptr noundef %40, i1 noundef zeroext true, i1 noundef zeroext false)
  br i1 %41, label %42, label %_ZN7AstNode11privateCastI13AstNodeAssignPS_EEPT_S2_.exit.thread

_ZN7AstNode11privateCastI13AstNodeAssignPS_EEPT_S2_.exit.thread: ; preds = %_ZN7AstNode11privateCastI13AstNodeAssignPS_EEPT_S2_.exit, %10, %9, %_ZNK7AstNode8widthMinEv.exit, %_ZN7AstNode11privateCastI6AstAndP11AstNodeExprEEPT_PS_.exit.thread
  br label %42

42:                                               ; preds = %_ZN7AstNode11privateCastI6AstAndP11AstNodeExprEEPT_PS_.exit.thread, %_ZN7AstNode11privateCastI6AstAndP11AstNodeExprEEPT_PS_.exit, %33, %_ZN7AstNode11privateCastI13AstNodeAssignPS_EEPT_S2_.exit.thread
  %.0 = phi i1 [ false, %_ZN7AstNode11privateCastI13AstNodeAssignPS_EEPT_S2_.exit.thread ], [ true, %33 ], [ true, %_ZN7AstNode11privateCastI6AstAndP11AstNodeExprEEPT_PS_.exit ], [ true, %_ZN7AstNode11privateCastI6AstAndP11AstNodeExprEEPT_PS_.exit.thread ]
  ret i1 %.0
}